; Function Attrs: mustprogress uwtable
define internal fastcc void @_ZNK4absl14flags_internal12_GLOBAL__N_114RetiredFlagObj8OnAccessEv(ptr %.8.val) unnamed_addr #3 align 2 personality ptr @__gxx_personality_v0 {
  %1 = alloca %"class.std::__cxx11::basic_string", align 8
  %2 = alloca %"class.absl::AlphaNum", align 8
  %3 = alloca %"class.absl::AlphaNum", align 8
  %4 = alloca %"class.absl::AlphaNum", align 8
  call void @llvm.lifetime.start.p0(i64 32, ptr nonnull %1) #34
  call void @llvm.lifetime.start.p0(i64 48, ptr nonnull %2) #34
  store i64 24, ptr %2, align 8
  %5 = getelementptr inbounds nuw i8, ptr %2, i64 8
  store ptr @.str.16, ptr %5, align 8
  call void @llvm.lifetime.start.p0(i64 48, ptr nonnull %3) #34
  %.not.i.i = icmp eq ptr %.8.val, null
  br i1 %.not.i.i, label %_ZN4absl8AlphaNumC2EPKc.exit, label %6

6:                                                ; preds = %0
  %7 = tail call noundef i64 @strlen(ptr noundef nonnull dereferenceable(1) %.8.val) #34
  br label %_ZN4absl8AlphaNumC2EPKc.exit

_ZN4absl8AlphaNumC2EPKc.exit:                     ; preds = %0, %6
  %.sroa.0.0.i.i = phi i64 [ %7, %6 ], [ 0, %0 ]
  store i64 %.sroa.0.0.i.i, ptr %3, align 8
  %8 = getelementptr inbounds nuw i8, ptr %3, i64 8
  store ptr %.8.val, ptr %8, align 8
  call void @llvm.lifetime.start.p0(i64 48, ptr nonnull %4) #34
  store i64 1, ptr %4, align 8
  %9 = getelementptr inbounds nuw i8, ptr %4, i64 8
  store ptr @.str.17, ptr %9, align 8
  call void @_ZN4absl6StrCatB5cxx11ERKNS_8AlphaNumES2_S2_(ptr dead_on_unwind nonnull writable sret(%"class.std::__cxx11::basic_string") align 8 %1, ptr noundef nonnull align 8 dereferenceable(48) %2, ptr noundef nonnull align 8 dereferenceable(48) %3, ptr noundef nonnull align 8 dereferenceable(48) %4)
  %10 = load ptr, ptr %1, align 8, !tbaa !41
  %11 = getelementptr inbounds nuw i8, ptr %1, i64 8
  %12 = load i64, ptr %11, align 8, !tbaa !38
  invoke void @_ZN4absl14flags_internal16ReportUsageErrorESt17basic_string_viewIcSt11char_traitsIcEEb(i64 %12, ptr %10, i1 noundef zeroext false)
          to label %13 unwind label %21

13:                                               ; preds = %_ZN4absl8AlphaNumC2EPKc.exit
  %14 = load ptr, ptr %1, align 8, !tbaa !41
  %15 = getelementptr inbounds nuw i8, ptr %1, i64 16
  %16 = icmp eq ptr %14, %15
  br i1 %16, label %_ZNKSt7__cxx1112basic_stringIcSt11char_traitsIcESaIcEE11_M_is_localEv.exit.thread.i.i, label %_ZNKSt7__cxx1112basic_stringIcSt11char_traitsIcESaIcEE11_M_is_localEv.exit.i.i

_ZNKSt7__cxx1112basic_stringIcSt11char_traitsIcESaIcEE11_M_is_localEv.exit.thread.i.i: ; preds = %13
  %17 = load i64, ptr %11, align 8, !tbaa !38
  %18 = icmp ult i64 %17, 16
  call void @llvm.assume(i1 %18)
  br label %_ZNSt7__cxx1112basic_stringIcSt11char_traitsIcESaIcEED2Ev.exit

_ZNKSt7__cxx1112basic_stringIcSt11char_traitsIcESaIcEE11_M_is_localEv.exit.i.i: ; preds = %13
  %19 = load i64, ptr %15, align 8, !tbaa !22
  %20 = add i64 %19, 1
  call void @_ZdlPvm(ptr noundef %14, i64 noundef %20) #37
  br label %_ZNSt7__cxx1112basic_stringIcSt11char_traitsIcESaIcEED2Ev.exit

_ZNSt7__cxx1112basic_stringIcSt11char_traitsIcESaIcEED2Ev.exit: ; preds = %_ZNKSt7__cxx1112basic_stringIcSt11char_traitsIcESaIcEE11_M_is_localEv.exit.thread.i.i, %_ZNKSt7__cxx1112basic_stringIcSt11char_traitsIcESaIcEE11_M_is_localEv.exit.i.i
  call void @llvm.lifetime.end.p0(i64 48, ptr nonnull %4) #34
  call void @llvm.lifetime.end.p0(i64 48, ptr nonnull %3) #34
  call void @llvm.lifetime.end.p0(i64 48, ptr nonnull %2) #34
  call void @llvm.lifetime.end.p0(i64 32, ptr nonnull %1) #34
  ret void

21:                                               ; preds = %_ZN4absl8AlphaNumC2EPKc.exit
  %22 = landingpad { ptr, i32 }
          cleanup
  %23 = load ptr, ptr %1, align 8, !tbaa !41
  %24 = getelementptr inbounds nuw i8, ptr %1, i64 16
  %25 = icmp eq ptr %23, %24
  br i1 %25, label %_ZNKSt7__cxx1112basic_stringIcSt11char_traitsIcESaIcEE11_M_is_localEv.exit.thread.i.i4, label %_ZNKSt7__cxx1112basic_stringIcSt11char_traitsIcESaIcEE11_M_is_localEv.exit.i.i3

_ZNKSt7__cxx1112basic_stringIcSt11char_traitsIcESaIcEE11_M_is_localEv.exit.thread.i.i4: ; preds = %21
  %26 = load i64, ptr %11, align 8, !tbaa !38
  %27 = icmp ult i64 %26, 16
  call void @llvm.assume(i1 %27)
  br label %_ZNSt7__cxx1112basic_stringIcSt11char_traitsIcESaIcEED2Ev.exit5

_ZNKSt7__cxx1112basic_stringIcSt11char_traitsIcESaIcEE11_M_is_localEv.exit.i.i3: ; preds = %21
  %28 = load i64, ptr %24, align 8, !tbaa !22
  %29 = add i64 %28, 1
  call void @_ZdlPvm(ptr noundef %23, i64 noundef %29) #37
  br label %_ZNSt7__cxx1112basic_stringIcSt11char_traitsIcESaIcEED2Ev.exit5

_ZNSt7__cxx1112basic_stringIcSt11char_traitsIcESaIcEED2Ev.exit5: ; preds = %_ZNKSt7__cxx1112basic_stringIcSt11char_traitsIcESaIcEE11_M_is_localEv.exit.thread.i.i4, %_ZNKSt7__cxx1112basic_stringIcSt11char_traitsIcESaIcEE11_M_is_localEv.exit.i.i3
  call void @llvm.lifetime.end.p0(i64 48, ptr nonnull %4) #34
  call void @llvm.lifetime.end.p0(i64 48, ptr nonnull %3) #34
  call void @llvm.lifetime.end.p0(i64 48, ptr nonnull %2) #34
  call void @llvm.lifetime.end.p0(i64 32, ptr nonnull %1) #34
  resume { ptr, i32 } %22
}